; Function Attrs: mustprogress nounwind uwtable
define internal fastcc void @_ZN5arrow3ipc12_GLOBAL__N_111ArrayLoaderD2Ev(ptr nocapture noundef nonnull readonly align 8 dereferenceable(120) %this) unnamed_addr #1 align 2 personality ptr @__gxx_personality_v0 {
entry:
  %read_request_ = getelementptr inbounds i8, ptr %this, i64 56
  %destinations_.i = getelementptr inbounds i8, ptr %this, i64 80
  %0 = load ptr, ptr %destinations_.i, align 8
  %tobool.not.i.i.i.i = icmp eq ptr %0, null
  br i1 %tobool.not.i.i.i.i, label %_ZNSt6vectorIPSt10shared_ptrIN5arrow6BufferEESaIS4_EED2Ev.exit.i, label %if.then.i.i.i.i

if.then.i.i.i.i:                                  ; preds = %entry
  tail call void @_ZdlPv(ptr noundef nonnull %0) #31
  br label %_ZNSt6vectorIPSt10shared_ptrIN5arrow6BufferEESaIS4_EED2Ev.exit.i

_ZNSt6vectorIPSt10shared_ptrIN5arrow6BufferEESaIS4_EED2Ev.exit.i: ; preds = %if.then.i.i.i.i, %entry
  %1 = load ptr, ptr %read_request_, align 8
  %tobool.not.i.i.i1.i = icmp eq ptr %1, null
  br i1 %tobool.not.i.i.i1.i, label %_ZN5arrow3ipc12_GLOBAL__N_120BatchDataReadRequestD2Ev.exit, label %if.then.i.i.i2.i

if.then.i.i.i2.i:                                 ; preds = %_ZNSt6vectorIPSt10shared_ptrIN5arrow6BufferEESaIS4_EED2Ev.exit.i
  tail call void @_ZdlPv(ptr noundef nonnull %1) #31
  br label %_ZN5arrow3ipc12_GLOBAL__N_120BatchDataReadRequestD2Ev.exit

_ZN5arrow3ipc12_GLOBAL__N_120BatchDataReadRequestD2Ev.exit: ; preds = %_ZNSt6vectorIPSt10shared_ptrIN5arrow6BufferEESaIS4_EED2Ev.exit.i, %if.then.i.i.i2.i
  ret void
}